; Function Attrs: mustprogress uwtable
define hidden void @_ZN11upolynomial12core_manager4sremEjPK3mpzjS3_R7svectorIS1_jE(ptr noundef nonnull align 8 dereferenceable(272) %0, i32 noundef %1, ptr noundef %2, i32 noundef %3, ptr noundef %4, ptr noundef nonnull align 8 dereferenceable(8) %5) local_unnamed_addr #3 align 2 {
  %7 = alloca i32, align 4
  call void @llvm.lifetime.start.p0(i64 4, ptr nonnull %7) #25
  call void @_ZN11upolynomial12core_manager3remEjPK3mpzjS3_RjR7svectorIS1_jE(ptr noundef nonnull align 8 dereferenceable(272) %0, i32 noundef %1, ptr noundef %2, i32 noundef %3, ptr noundef %4, ptr noundef nonnull align 4 dereferenceable(4) %7, ptr noundef nonnull align 8 dereferenceable(8) %5)
  %8 = load i32, ptr %7, align 4, !tbaa !27
  %9 = and i32 %8, 1
  %10 = icmp eq i32 %9, 0
  br i1 %10, label %18, label %11

11:                                               ; preds = %6
  %.not = icmp eq i32 %3, 0
  br i1 %.not, label %_ZN11upolynomial12core_manager3negEjP3mpz.exit, label %12

12:                                               ; preds = %11
  %13 = add i32 %3, -1
  %14 = zext i32 %13 to i64
  %15 = getelementptr inbounds nuw %class.mpz, ptr %4, i64 %14
  %16 = load i32, ptr %15, align 8, !tbaa !8
  %17 = icmp sgt i32 %16, 0
  br i1 %17, label %18, label %_ZN11upolynomial12core_manager3negEjP3mpz.exit

18:                                               ; preds = %12, %6
  %19 = load ptr, ptr %5, align 8, !tbaa !28
  %20 = icmp eq ptr %19, null
  br i1 %20, label %_ZN11upolynomial12core_manager3negEjP3mpz.exit, label %_ZNK6vectorI3mpzLb0EjE4sizeEv.exit

_ZNK6vectorI3mpzLb0EjE4sizeEv.exit:               ; preds = %18
  %21 = getelementptr inbounds i8, ptr %19, i64 -4
  %22 = load i32, ptr %21, align 4, !tbaa !27
  %.not.i = icmp eq i32 %22, 0
  br i1 %.not.i, label %_ZN11upolynomial12core_manager3negEjP3mpz.exit, label %.lr.ph.i

.lr.ph.i:                                         ; preds = %_ZNK6vectorI3mpzLb0EjE4sizeEv.exit
  %23 = getelementptr inbounds nuw i8, ptr %0, i64 8
  %24 = getelementptr inbounds nuw i8, ptr %0, i64 16
  %wide.trip.count.i = zext i32 %22 to i64
  br label %25

25:                                               ; preds = %_ZN13mpzzp_manager3negER3mpz.exit.i, %.lr.ph.i
  %indvars.iv.i = phi i64 [ 0, %.lr.ph.i ], [ %indvars.iv.next.i, %_ZN13mpzzp_manager3negER3mpz.exit.i ]
  %26 = getelementptr inbounds nuw %class.mpz, ptr %19, i64 %indvars.iv.i
  %27 = load ptr, ptr %23, align 8, !tbaa !33
  tail call void @_ZN11mpz_managerILb0EE3negER3mpz(ptr noundef nonnull align 8 dereferenceable(600) %27, ptr noundef nonnull align 8 dereferenceable(16) %26)
  %28 = load i8, ptr %24, align 8, !tbaa !12, !range !16, !noundef !17
  %29 = trunc nuw i8 %28 to i1
  br i1 %29, label %_ZN13mpzzp_manager3negER3mpz.exit.i, label %30

30:                                               ; preds = %25
  tail call void @_ZN13mpzzp_manager16p_normalize_coreER3mpz(ptr noundef nonnull align 8 dereferenceable(136) %23, ptr noundef nonnull align 8 dereferenceable(16) %26)
  br label %_ZN13mpzzp_manager3negER3mpz.exit.i

_ZN13mpzzp_manager3negER3mpz.exit.i:              ; preds = %30, %25
  %indvars.iv.next.i = add nuw nsw i64 %indvars.iv.i, 1
  %exitcond.not.i = icmp eq i64 %indvars.iv.next.i, %wide.trip.count.i
  br i1 %exitcond.not.i, label %_ZN11upolynomial12core_manager3negEjP3mpz.exit, label %25, !llvm.loop !74

_ZN11upolynomial12core_manager3negEjP3mpz.exit:   ; preds = %_ZN13mpzzp_manager3negER3mpz.exit.i, %18, %_ZNK6vectorI3mpzLb0EjE4sizeEv.exit, %12, %11
  call void @llvm.lifetime.end.p0(i64 4, ptr nonnull %7) #25
  ret void
}